
SiemensC55_ATmega8A_CallServer.elf:     file format elf32-avr

Sections:
Idx Name          Size      VMA       LMA       File off  Algn
  0 .text         00000624  00000000  00000000  00000094  2**1
                  CONTENTS, ALLOC, LOAD, READONLY, CODE
  1 .data         0000007c  00800060  00000624  000006b8  2**0
                  CONTENTS, ALLOC, LOAD, DATA
  2 .bss          00000109  008000dc  008000dc  00000734  2**0
                  ALLOC
  3 .comment      00000030  00000000  00000000  00000734  2**0
                  CONTENTS, READONLY
  4 .debug_aranges 00000130  00000000  00000000  00000764  2**0
                  CONTENTS, READONLY, DEBUGGING
  5 .debug_info   00001350  00000000  00000000  00000894  2**0
                  CONTENTS, READONLY, DEBUGGING
  6 .debug_abbrev 000006a3  00000000  00000000  00001be4  2**0
                  CONTENTS, READONLY, DEBUGGING
  7 .debug_line   0000082c  00000000  00000000  00002287  2**0
                  CONTENTS, READONLY, DEBUGGING
  8 .debug_frame  000002f8  00000000  00000000  00002ab4  2**2
                  CONTENTS, READONLY, DEBUGGING
  9 .debug_str    00000606  00000000  00000000  00002dac  2**0
                  CONTENTS, READONLY, DEBUGGING
 10 .debug_loc    00000bde  00000000  00000000  000033b2  2**0
                  CONTENTS, READONLY, DEBUGGING
 11 .debug_ranges 00000120  00000000  00000000  00003f90  2**0
                  CONTENTS, READONLY, DEBUGGING

Disassembly of section .text:

00000000 <__vectors>:
   0:	12 c0       	rjmp	.+36     	; 0x26 <__ctors_end>
   2:	13 c2       	rjmp	.+1062   	; 0x42a <__vector_1>
   4:	2b c0       	rjmp	.+86     	; 0x5c <__bad_interrupt>
   6:	2a c0       	rjmp	.+84     	; 0x5c <__bad_interrupt>
   8:	29 c0       	rjmp	.+82     	; 0x5c <__bad_interrupt>
   a:	28 c0       	rjmp	.+80     	; 0x5c <__bad_interrupt>
   c:	27 c0       	rjmp	.+78     	; 0x5c <__bad_interrupt>
   e:	26 c0       	rjmp	.+76     	; 0x5c <__bad_interrupt>
  10:	25 c0       	rjmp	.+74     	; 0x5c <__bad_interrupt>
  12:	24 c0       	rjmp	.+72     	; 0x5c <__bad_interrupt>
  14:	23 c0       	rjmp	.+70     	; 0x5c <__bad_interrupt>
  16:	b2 c1       	rjmp	.+868    	; 0x37c <__vector_11>
  18:	17 c2       	rjmp	.+1070   	; 0x448 <__vector_12>
  1a:	20 c0       	rjmp	.+64     	; 0x5c <__bad_interrupt>
  1c:	1f c0       	rjmp	.+62     	; 0x5c <__bad_interrupt>
  1e:	1e c0       	rjmp	.+60     	; 0x5c <__bad_interrupt>
  20:	1d c0       	rjmp	.+58     	; 0x5c <__bad_interrupt>
  22:	1c c0       	rjmp	.+56     	; 0x5c <__bad_interrupt>
  24:	1b c0       	rjmp	.+54     	; 0x5c <__bad_interrupt>

00000026 <__ctors_end>:
  26:	11 24       	eor	r1, r1
  28:	1f be       	out	0x3f, r1	; 63
  2a:	cf e5       	ldi	r28, 0x5F	; 95
  2c:	d4 e0       	ldi	r29, 0x04	; 4
  2e:	de bf       	out	0x3e, r29	; 62
  30:	cd bf       	out	0x3d, r28	; 61

00000032 <__do_copy_data>:
  32:	10 e0       	ldi	r17, 0x00	; 0
  34:	a0 e6       	ldi	r26, 0x60	; 96
  36:	b0 e0       	ldi	r27, 0x00	; 0
  38:	e4 e2       	ldi	r30, 0x24	; 36
  3a:	f6 e0       	ldi	r31, 0x06	; 6
  3c:	02 c0       	rjmp	.+4      	; 0x42 <__SREG__+0x3>
  3e:	05 90       	lpm	r0, Z+
  40:	0d 92       	st	X+, r0
  42:	ac 3d       	cpi	r26, 0xDC	; 220
  44:	b1 07       	cpc	r27, r17
  46:	d9 f7       	brne	.-10     	; 0x3e <__SP_H__>

00000048 <__do_clear_bss>:
  48:	21 e0       	ldi	r18, 0x01	; 1
  4a:	ac ed       	ldi	r26, 0xDC	; 220
  4c:	b0 e0       	ldi	r27, 0x00	; 0
  4e:	01 c0       	rjmp	.+2      	; 0x52 <.do_clear_bss_start>

00000050 <.do_clear_bss_loop>:
  50:	1d 92       	st	X+, r1

00000052 <.do_clear_bss_start>:
  52:	a5 3e       	cpi	r26, 0xE5	; 229
  54:	b2 07       	cpc	r27, r18
  56:	e1 f7       	brne	.-8      	; 0x50 <.do_clear_bss_loop>
  58:	84 d1       	rcall	.+776    	; 0x362 <main>
  5a:	e2 c2       	rjmp	.+1476   	; 0x620 <_exit>

0000005c <__bad_interrupt>:
  5c:	d1 cf       	rjmp	.-94     	; 0x0 <__vectors>

0000005e <gsm_put_at_command>:
#define CR_TERMINATOR		'\r'
#define LF_TERMINATOR		'\n'
#define CR_LF_TERMINATOR	"\r\n"

void gsm_put_at_command(const char *at_command, const char *terminate, const char *at_response[], const uint8_t response_size, uint16_t time_out_ms)
{
  5e:	2f 92       	push	r2
  60:	3f 92       	push	r3
  62:	4f 92       	push	r4
  64:	5f 92       	push	r5
  66:	6f 92       	push	r6
  68:	7f 92       	push	r7
  6a:	8f 92       	push	r8
  6c:	9f 92       	push	r9
  6e:	af 92       	push	r10
  70:	bf 92       	push	r11
  72:	cf 92       	push	r12
  74:	df 92       	push	r13
  76:	ef 92       	push	r14
  78:	ff 92       	push	r15
  7a:	0f 93       	push	r16
  7c:	1f 93       	push	r17
  7e:	cf 93       	push	r28
  80:	df 93       	push	r29
  82:	3c 01       	movw	r6, r24
  84:	4b 01       	movw	r8, r22
  86:	5a 01       	movw	r10, r20
  88:	32 2e       	mov	r3, r18
  8a:	28 01       	movw	r4, r16
	/* reset the buffer */
	if (at_response)
  8c:	41 15       	cp	r20, r1
  8e:	51 05       	cpc	r21, r1
  90:	09 f0       	breq	.+2      	; 0x94 <gsm_put_at_command+0x36>
	{
		uart_reset_rx_buffer();
  92:	42 d2       	rcall	.+1156   	; 0x518 <uart_reset_rx_buffer>
	}
	/* send an at command */
	uart_put_string(at_command);
  94:	c3 01       	movw	r24, r6
  96:	32 d2       	rcall	.+1124   	; 0x4fc <uart_put_string>
	/* if it is needed terminate the command */
	if (terminate)
  98:	81 14       	cp	r8, r1
  9a:	91 04       	cpc	r9, r1
  9c:	11 f0       	breq	.+4      	; 0xa2 <gsm_put_at_command+0x44>
	{
		uart_put_string(terminate);
  9e:	c4 01       	movw	r24, r8
  a0:	2d d2       	rcall	.+1114   	; 0x4fc <uart_put_string>
	}
	/* If response to command is expected */
	if (at_response)
  a2:	a1 14       	cp	r10, r1
  a4:	b1 04       	cpc	r11, r1
  a6:	09 f4       	brne	.+2      	; 0xaa <gsm_put_at_command+0x4c>
  a8:	40 c0       	rjmp	.+128    	; 0x12a <gsm_put_at_command+0xcc>
		time_out_ms: 2000: 2000ms / 100ms = 20x
		*/
		uint8_t time_out_circles = 10;				// x10
		uint8_t time_out_one_circle_time = 100;		// 100ms
		/* time out is given by caller */
		if (time_out_ms > 0)
  aa:	41 14       	cp	r4, r1
  ac:	51 04       	cpc	r5, r1
  ae:	61 f0       	breq	.+24     	; 0xc8 <gsm_put_at_command+0x6a>
		{
			time_out_circles = time_out_ms/time_out_one_circle_time;
  b0:	92 01       	movw	r18, r4
  b2:	36 95       	lsr	r19
  b4:	27 95       	ror	r18
  b6:	36 95       	lsr	r19
  b8:	27 95       	ror	r18
  ba:	ab e7       	ldi	r26, 0x7B	; 123
  bc:	b4 e1       	ldi	r27, 0x14	; 20
  be:	7f d2       	rcall	.+1278   	; 0x5be <__umulhisi3>
  c0:	96 95       	lsr	r25
  c2:	87 95       	ror	r24
  c4:	28 2e       	mov	r2, r24
  c6:	04 c0       	rjmp	.+8      	; 0xd0 <gsm_put_at_command+0x72>
	{
		/*
		time_out_ms: 0 means default 1s: 1000ms / 100ms = 10x
		time_out_ms: 2000: 2000ms / 100ms = 20x
		*/
		uint8_t time_out_circles = 10;				// x10
  c8:	0f 2e       	mov	r0, r31
  ca:	fa e0       	ldi	r31, 0x0A	; 10
  cc:	2f 2e       	mov	r2, r31
  ce:	f0 2d       	mov	r31, r0
		if (time_out_ms > 0)
		{
			time_out_circles = time_out_ms/time_out_one_circle_time;
		}
		/* wait until the time out expires or response is arrived */
		for (int i=0; i<response_size; i++)
  d0:	c3 2c       	mov	r12, r3
  d2:	d1 2c       	mov	r13, r1
  d4:	1c 14       	cp	r1, r12
  d6:	1d 04       	cpc	r1, r13
  d8:	44 f5       	brge	.+80     	; 0x12a <gsm_put_at_command+0xcc>
  da:	e5 01       	movw	r28, r10
  dc:	e1 2c       	mov	r14, r1
  de:	f1 2c       	mov	r15, r1
  e0:	19 c0       	rjmp	.+50     	; 0x114 <gsm_put_at_command+0xb6>
		{
			uint8_t response_received = 0;
			while (time_out_circles)
			{
				/*  */
				if (uart_is_data_in_rx_buffer(at_response[i]))
  e2:	88 81       	ld	r24, Y
  e4:	99 81       	ldd	r25, Y+1	; 0x01
  e6:	53 d2       	rcall	.+1190   	; 0x58e <uart_is_data_in_rx_buffer>
  e8:	88 23       	and	r24, r24
  ea:	21 f0       	breq	.+8      	; 0xf4 <gsm_put_at_command+0x96>
				{
					ok_led_blinking(1);
  ec:	81 e0       	ldi	r24, 0x01	; 1
  ee:	fa d0       	rcall	.+500    	; 0x2e4 <ok_led_blinking>
					uart_move_rx_tail();
  f0:	33 d2       	rcall	.+1126   	; 0x558 <uart_move_rx_tail>
  f2:	09 c0       	rjmp	.+18     	; 0x106 <gsm_put_at_command+0xa8>
	#else
		//round up by default
		__ticks_dc = (uint32_t)(ceil(fabs(__tmp)));
	#endif

	__builtin_avr_delay_cycles(__ticks_dc);
  f4:	8f e4       	ldi	r24, 0x4F	; 79
  f6:	93 ec       	ldi	r25, 0xC3	; 195
  f8:	01 97       	sbiw	r24, 0x01	; 1
  fa:	f1 f7       	brne	.-4      	; 0xf8 <gsm_put_at_command+0x9a>
  fc:	00 c0       	rjmp	.+0      	; 0xfe <gsm_put_at_command+0xa0>
  fe:	00 00       	nop
				else
				{
					_delay_ms(time_out_one_circle_time);
				}
				/*  */
				time_out_circles--;
 100:	2a 94       	dec	r2
		}
		/* wait until the time out expires or response is arrived */
		for (int i=0; i<response_size; i++)
		{
			uint8_t response_received = 0;
			while (time_out_circles)
 102:	79 f7       	brne	.-34     	; 0xe2 <gsm_put_at_command+0x84>
 104:	09 c0       	rjmp	.+18     	; 0x118 <gsm_put_at_command+0xba>
		if (time_out_ms > 0)
		{
			time_out_circles = time_out_ms/time_out_one_circle_time;
		}
		/* wait until the time out expires or response is arrived */
		for (int i=0; i<response_size; i++)
 106:	9f ef       	ldi	r25, 0xFF	; 255
 108:	e9 1a       	sub	r14, r25
 10a:	f9 0a       	sbc	r15, r25
 10c:	22 96       	adiw	r28, 0x02	; 2
 10e:	ec 14       	cp	r14, r12
 110:	fd 04       	cpc	r15, r13
 112:	5c f4       	brge	.+22     	; 0x12a <gsm_put_at_command+0xcc>
		{
			uint8_t response_received = 0;
			while (time_out_circles)
 114:	21 10       	cpse	r2, r1
 116:	e5 cf       	rjmp	.-54     	; 0xe2 <gsm_put_at_command+0x84>
			if (response_received)
			{
				continue;
			}
			/* recursive call for the response */
			error_led_blinking(1);
 118:	81 e0       	ldi	r24, 0x01	; 1
 11a:	03 d1       	rcall	.+518    	; 0x322 <error_led_blinking>
			gsm_put_at_command(at_command, terminate, at_response, response_size, time_out_ms);
 11c:	82 01       	movw	r16, r4
 11e:	23 2d       	mov	r18, r3
 120:	a5 01       	movw	r20, r10
 122:	b4 01       	movw	r22, r8
 124:	c3 01       	movw	r24, r6
 126:	9b df       	rcall	.-202    	; 0x5e <gsm_put_at_command>
 128:	ee cf       	rjmp	.-36     	; 0x106 <gsm_put_at_command+0xa8>
		}
	}
}
 12a:	df 91       	pop	r29
 12c:	cf 91       	pop	r28
 12e:	1f 91       	pop	r17
 130:	0f 91       	pop	r16
 132:	ff 90       	pop	r15
 134:	ef 90       	pop	r14
 136:	df 90       	pop	r13
 138:	cf 90       	pop	r12
 13a:	bf 90       	pop	r11
 13c:	af 90       	pop	r10
 13e:	9f 90       	pop	r9
 140:	8f 90       	pop	r8
 142:	7f 90       	pop	r7
 144:	6f 90       	pop	r6
 146:	5f 90       	pop	r5
 148:	4f 90       	pop	r4
 14a:	3f 90       	pop	r3
 14c:	2f 90       	pop	r2
 14e:	08 95       	ret

00000150 <gsm_init>:

void gsm_init(void)
{
 150:	0f 93       	push	r16
 152:	1f 93       	push	r17
	gsm_put_at_command(AT_COMMAND_ATTEST, CR_LF_TERMINATOR, AT_RESPONSE_ATTEST, 2, 10000);
 154:	00 e1       	ldi	r16, 0x10	; 16
 156:	17 e2       	ldi	r17, 0x27	; 39
 158:	22 e0       	ldi	r18, 0x02	; 2
 15a:	4c e6       	ldi	r20, 0x6C	; 108
 15c:	50 e0       	ldi	r21, 0x00	; 0
 15e:	60 e7       	ldi	r22, 0x70	; 112
 160:	70 e0       	ldi	r23, 0x00	; 0
 162:	83 e7       	ldi	r24, 0x73	; 115
 164:	90 e0       	ldi	r25, 0x00	; 0
 166:	7b df       	rcall	.-266    	; 0x5e <gsm_put_at_command>
	gsm_put_at_command(AT_COMMAND_ECHO_OFF, CR_LF_TERMINATOR, AT_RESPONSE_ECHO_OFF, 2, 0);
 168:	00 e0       	ldi	r16, 0x00	; 0
 16a:	10 e0       	ldi	r17, 0x00	; 0
 16c:	22 e0       	ldi	r18, 0x02	; 2
 16e:	48 e6       	ldi	r20, 0x68	; 104
 170:	50 e0       	ldi	r21, 0x00	; 0
 172:	60 e7       	ldi	r22, 0x70	; 112
 174:	70 e0       	ldi	r23, 0x00	; 0
 176:	86 e7       	ldi	r24, 0x76	; 118
 178:	90 e0       	ldi	r25, 0x00	; 0
 17a:	71 df       	rcall	.-286    	; 0x5e <gsm_put_at_command>
	gsm_put_at_command(AT_COMMAND_CLIP_ON, CR_LF_TERMINATOR, AT_RESPONSE_OK, 1, 0);
 17c:	21 e0       	ldi	r18, 0x01	; 1
 17e:	44 e6       	ldi	r20, 0x64	; 100
 180:	50 e0       	ldi	r21, 0x00	; 0
 182:	60 e7       	ldi	r22, 0x70	; 112
 184:	70 e0       	ldi	r23, 0x00	; 0
 186:	8b e7       	ldi	r24, 0x7B	; 123
 188:	90 e0       	ldi	r25, 0x00	; 0
 18a:	69 df       	rcall	.-302    	; 0x5e <gsm_put_at_command>
}
 18c:	1f 91       	pop	r17
 18e:	0f 91       	pop	r16
 190:	08 95       	ret

00000192 <gsm_event_handler>:

void gsm_event_handler(void)
{
 192:	0f 93       	push	r16
 194:	1f 93       	push	r17
	static volatile uint8_t ring_cnt = 0;

	/* call: RING */
	if (uart_is_data_in_rx_buffer(AT_RESPONSE_RING[0]))
 196:	80 91 60 00 	lds	r24, 0x0060
 19a:	90 91 61 00 	lds	r25, 0x0061
 19e:	f7 d1       	rcall	.+1006   	; 0x58e <uart_is_data_in_rx_buffer>
 1a0:	88 23       	and	r24, r24
 1a2:	19 f0       	breq	.+6      	; 0x1aa <gsm_event_handler+0x18>
	{
		uart_move_rx_tail();
 1a4:	d9 d1       	rcall	.+946    	; 0x558 <uart_move_rx_tail>
		ok_led_blinking(1);
 1a6:	81 e0       	ldi	r24, 0x01	; 1
 1a8:	9d d0       	rcall	.+314    	; 0x2e4 <ok_led_blinking>
	}
	/* call: RING as detailed call with caller ID "CLIP" */
	if (uart_is_data_in_rx_buffer(AT_RESPONSE_CLIP[0]))
 1aa:	80 91 62 00 	lds	r24, 0x0062
 1ae:	90 91 63 00 	lds	r25, 0x0063
 1b2:	ed d1       	rcall	.+986    	; 0x58e <uart_is_data_in_rx_buffer>
 1b4:	88 23       	and	r24, r24
 1b6:	09 f4       	brne	.+2      	; 0x1ba <gsm_event_handler+0x28>
 1b8:	4b c0       	rjmp	.+150    	; 0x250 <gsm_event_handler+0xbe>
	{
		/* just the authorized callers can switch the output */
		if (uart_is_data_in_rx_buffer(AUTHORIZED_MOBILE_NUMBER_1) || uart_is_data_in_rx_buffer(AUTHORIZED_MOBILE_NUMBER_2))
 1ba:	85 e8       	ldi	r24, 0x85	; 133
 1bc:	90 e0       	ldi	r25, 0x00	; 0
 1be:	e7 d1       	rcall	.+974    	; 0x58e <uart_is_data_in_rx_buffer>
 1c0:	81 11       	cpse	r24, r1
 1c2:	05 c0       	rjmp	.+10     	; 0x1ce <gsm_event_handler+0x3c>
 1c4:	8f e8       	ldi	r24, 0x8F	; 143
 1c6:	90 e0       	ldi	r25, 0x00	; 0
 1c8:	e2 d1       	rcall	.+964    	; 0x58e <uart_is_data_in_rx_buffer>
 1ca:	88 23       	and	r24, r24
 1cc:	99 f1       	breq	.+102    	; 0x234 <gsm_event_handler+0xa2>
		{
			ring_cnt++;
 1ce:	80 91 dc 00 	lds	r24, 0x00DC
 1d2:	8f 5f       	subi	r24, 0xFF	; 255
 1d4:	80 93 dc 00 	sts	0x00DC, r24
			ok_led_blinking(1);
 1d8:	81 e0       	ldi	r24, 0x01	; 1
 1da:	84 d0       	rcall	.+264    	; 0x2e4 <ok_led_blinking>
			/* if OFF then switch ON at 4th rings */
			if (!OUT_1_STATE() && (ring_cnt >= NUMBER_OF_RINGS_ON))
 1dc:	ad 99       	sbic	0x15, 5	; 21
 1de:	13 c0       	rjmp	.+38     	; 0x206 <gsm_event_handler+0x74>
 1e0:	80 91 dc 00 	lds	r24, 0x00DC
 1e4:	84 30       	cpi	r24, 0x04	; 4
 1e6:	78 f0       	brcs	.+30     	; 0x206 <gsm_event_handler+0x74>
			{
				ring_cnt = 0;
 1e8:	10 92 dc 00 	sts	0x00DC, r1
				OUT_1_ON();
 1ec:	ad 9a       	sbi	0x15, 5	; 21
				OUT_2_ON();
 1ee:	ac 9a       	sbi	0x15, 4	; 21
				gsm_put_at_command(AT_COMMAND_HANGUP, CR_LF_TERMINATOR, AT_RESPONSE_HANGUP, 1, 0);
 1f0:	00 e0       	ldi	r16, 0x00	; 0
 1f2:	10 e0       	ldi	r17, 0x00	; 0
 1f4:	21 e0       	ldi	r18, 0x01	; 1
 1f6:	46 e6       	ldi	r20, 0x66	; 102
 1f8:	50 e0       	ldi	r21, 0x00	; 0
 1fa:	60 e7       	ldi	r22, 0x70	; 112
 1fc:	70 e0       	ldi	r23, 0x00	; 0
 1fe:	89 e9       	ldi	r24, 0x99	; 153
 200:	90 e0       	ldi	r25, 0x00	; 0
 202:	2d df       	rcall	.-422    	; 0x5e <gsm_put_at_command>
 204:	25 c0       	rjmp	.+74     	; 0x250 <gsm_event_handler+0xbe>
			}
			/* if ON than swtich OFF at 2nd rings */
			else if (OUT_1_STATE() && (ring_cnt >= NUMBER_OF_RINGS_OFF))
 206:	ad 9b       	sbis	0x15, 5	; 21
 208:	13 c0       	rjmp	.+38     	; 0x230 <gsm_event_handler+0x9e>
 20a:	80 91 dc 00 	lds	r24, 0x00DC
 20e:	82 30       	cpi	r24, 0x02	; 2
 210:	78 f0       	brcs	.+30     	; 0x230 <gsm_event_handler+0x9e>
			{
				ring_cnt = 0;
 212:	10 92 dc 00 	sts	0x00DC, r1
				OUT_1_OFF();
 216:	ad 98       	cbi	0x15, 5	; 21
				OUT_2_OFF();
 218:	ac 98       	cbi	0x15, 4	; 21
				gsm_put_at_command(AT_COMMAND_HANGUP, CR_LF_TERMINATOR, AT_RESPONSE_HANGUP, 1, 0);
 21a:	00 e0       	ldi	r16, 0x00	; 0
 21c:	10 e0       	ldi	r17, 0x00	; 0
 21e:	21 e0       	ldi	r18, 0x01	; 1
 220:	46 e6       	ldi	r20, 0x66	; 102
 222:	50 e0       	ldi	r21, 0x00	; 0
 224:	60 e7       	ldi	r22, 0x70	; 112
 226:	70 e0       	ldi	r23, 0x00	; 0
 228:	89 e9       	ldi	r24, 0x99	; 153
 22a:	90 e0       	ldi	r25, 0x00	; 0
 22c:	18 df       	rcall	.-464    	; 0x5e <gsm_put_at_command>
 22e:	10 c0       	rjmp	.+32     	; 0x250 <gsm_event_handler+0xbe>
			}
			else
			{
				uart_reset_rx_buffer();
 230:	73 d1       	rcall	.+742    	; 0x518 <uart_reset_rx_buffer>
 232:	0e c0       	rjmp	.+28     	; 0x250 <gsm_event_handler+0xbe>
			}
		}
		/* at not authorized callers hang up the call */
		else
		{
			ring_cnt = 0;
 234:	10 92 dc 00 	sts	0x00DC, r1
			error_led_blinking(2);
 238:	82 e0       	ldi	r24, 0x02	; 2
 23a:	73 d0       	rcall	.+230    	; 0x322 <error_led_blinking>
			gsm_put_at_command(AT_COMMAND_HANGUP, CR_LF_TERMINATOR, AT_RESPONSE_HANGUP, 1, 0);
 23c:	00 e0       	ldi	r16, 0x00	; 0
 23e:	10 e0       	ldi	r17, 0x00	; 0
 240:	21 e0       	ldi	r18, 0x01	; 1
 242:	46 e6       	ldi	r20, 0x66	; 102
 244:	50 e0       	ldi	r21, 0x00	; 0
 246:	60 e7       	ldi	r22, 0x70	; 112
 248:	70 e0       	ldi	r23, 0x00	; 0
 24a:	89 e9       	ldi	r24, 0x99	; 153
 24c:	90 e0       	ldi	r25, 0x00	; 0
 24e:	07 df       	rcall	.-498    	; 0x5e <gsm_put_at_command>
		}
	}
	/*  */
}
 250:	1f 91       	pop	r17
 252:	0f 91       	pop	r16
 254:	08 95       	ret

00000256 <port_config>:
#include "port.h"

void port_config(void)
{
	/* set PINs to 0 as output (O is input, 1 is output) */
	DDRB |= ((1 << ERROR_LED_PIN) | (1 << OK_LED_PIN));
 256:	87 b3       	in	r24, 0x17	; 23
 258:	80 6c       	ori	r24, 0xC0	; 192
 25a:	87 bb       	out	0x17, r24	; 23
	/* set PINs to 0 as low, default OFF (0 as low, 1 as high) */
	PORTB &= ~((1 << ERROR_LED_PIN) | (1 << OK_LED_PIN));
 25c:	88 b3       	in	r24, 0x18	; 24
 25e:	8f 73       	andi	r24, 0x3F	; 63
 260:	88 bb       	out	0x18, r24	; 24
	/* set PINs to 0 as output (O is input, 1 is output) */
	DDRC |= ((1 << OUT_1_PIN) | (1 << OUT_2_PIN));
 262:	84 b3       	in	r24, 0x14	; 20
 264:	80 63       	ori	r24, 0x30	; 48
 266:	84 bb       	out	0x14, r24	; 20
	/* set PINs to 0 as low, default OFF (0 as low, 1 as high) */
	PORTC &= ~((1 << OUT_1_PIN) | (1 << OUT_2_PIN));
 268:	85 b3       	in	r24, 0x15	; 21
 26a:	8f 7c       	andi	r24, 0xCF	; 207
 26c:	85 bb       	out	0x15, r24	; 21
	/* set PINs to 0 as input (O is input, 1 is output) */
	DDRD  &= ~(1 << BUTTON_1_PIN);
 26e:	8a 98       	cbi	0x11, 2	; 17
	/* set PINs to high to turn On the Pull-up (0 as low, 1 as high) */
	PORTD |= (1 << BUTTON_1_PIN);
 270:	92 9a       	sbi	0x12, 2	; 18
	/* MCUCR MCU Control Register Bit 1, 0 – ISC01, ISC00: Interrupt Sense Control 0 Bit 1 and Bit 0 (low, change, h->l, l->h) */
	MCUCR &= ~(1 << ISC00);	// ISC00 - 0: Trigger on falling edge of INT0
 272:	85 b7       	in	r24, 0x35	; 53
 274:	8e 7f       	andi	r24, 0xFE	; 254
 276:	85 bf       	out	0x35, r24	; 53
	MCUCR |= (1 << ISC01);	// ISC01 - 1: Trigger on falling edge of INT0
 278:	85 b7       	in	r24, 0x35	; 53
 27a:	82 60       	ori	r24, 0x02	; 2
 27c:	85 bf       	out	0x35, r24	; 53
	/* GICR General Interrupt Control Register */
	GICR |= (1 << INT0);
 27e:	8b b7       	in	r24, 0x3b	; 59
 280:	80 64       	ori	r24, 0x40	; 64
 282:	8b bf       	out	0x3b, r24	; 59
 284:	08 95       	ret

00000286 <toggle_outputs>:
}

void toggle_outputs(void)
{
	OUT_1_TOGGLE();
 286:	95 b3       	in	r25, 0x15	; 21
 288:	80 e2       	ldi	r24, 0x20	; 32
 28a:	89 27       	eor	r24, r25
 28c:	85 bb       	out	0x15, r24	; 21
	OUT_2_TOGGLE();
 28e:	95 b3       	in	r25, 0x15	; 21
 290:	80 e1       	ldi	r24, 0x10	; 16
 292:	89 27       	eor	r24, r25
 294:	85 bb       	out	0x15, r24	; 21
 296:	08 95       	ret

00000298 <leds_blinking>:
}

void leds_blinking(uint8_t n)
{
	for(uint8_t i=0; i < n; i++)
 298:	88 23       	and	r24, r24
 29a:	19 f1       	breq	.+70     	; 0x2e2 <leds_blinking+0x4a>
 29c:	90 e0       	ldi	r25, 0x00	; 0
	{
		OK_LED_TOGGLE();
		ERROR_LED_TOGGLE();
 29e:	20 e4       	ldi	r18, 0x40	; 64

void leds_blinking(uint8_t n)
{
	for(uint8_t i=0; i < n; i++)
	{
		OK_LED_TOGGLE();
 2a0:	38 b3       	in	r19, 0x18	; 24
 2a2:	30 58       	subi	r19, 0x80	; 128
 2a4:	38 bb       	out	0x18, r19	; 24
		ERROR_LED_TOGGLE();
 2a6:	38 b3       	in	r19, 0x18	; 24
 2a8:	32 27       	eor	r19, r18
 2aa:	38 bb       	out	0x18, r19	; 24
 2ac:	3f e9       	ldi	r19, 0x9F	; 159
 2ae:	46 e8       	ldi	r20, 0x86	; 134
 2b0:	51 e0       	ldi	r21, 0x01	; 1
 2b2:	31 50       	subi	r19, 0x01	; 1
 2b4:	40 40       	sbci	r20, 0x00	; 0
 2b6:	50 40       	sbci	r21, 0x00	; 0
 2b8:	e1 f7       	brne	.-8      	; 0x2b2 <leds_blinking+0x1a>
 2ba:	00 c0       	rjmp	.+0      	; 0x2bc <leds_blinking+0x24>
 2bc:	00 00       	nop
		_delay_ms(250);
		OK_LED_TOGGLE();
 2be:	38 b3       	in	r19, 0x18	; 24
 2c0:	30 58       	subi	r19, 0x80	; 128
 2c2:	38 bb       	out	0x18, r19	; 24
		ERROR_LED_TOGGLE();
 2c4:	38 b3       	in	r19, 0x18	; 24
 2c6:	32 27       	eor	r19, r18
 2c8:	38 bb       	out	0x18, r19	; 24
 2ca:	3f e9       	ldi	r19, 0x9F	; 159
 2cc:	46 e8       	ldi	r20, 0x86	; 134
 2ce:	51 e0       	ldi	r21, 0x01	; 1
 2d0:	31 50       	subi	r19, 0x01	; 1
 2d2:	40 40       	sbci	r20, 0x00	; 0
 2d4:	50 40       	sbci	r21, 0x00	; 0
 2d6:	e1 f7       	brne	.-8      	; 0x2d0 <leds_blinking+0x38>
 2d8:	00 c0       	rjmp	.+0      	; 0x2da <leds_blinking+0x42>
 2da:	00 00       	nop
	OUT_2_TOGGLE();
}

void leds_blinking(uint8_t n)
{
	for(uint8_t i=0; i < n; i++)
 2dc:	9f 5f       	subi	r25, 0xFF	; 255
 2de:	98 13       	cpse	r25, r24
 2e0:	df cf       	rjmp	.-66     	; 0x2a0 <leds_blinking+0x8>
 2e2:	08 95       	ret

000002e4 <ok_led_blinking>:
	}
}

void ok_led_blinking(uint8_t n)
{
	for (uint8_t i=0; i<n; i++)
 2e4:	88 23       	and	r24, r24
 2e6:	e1 f0       	breq	.+56     	; 0x320 <ok_led_blinking+0x3c>
 2e8:	90 e0       	ldi	r25, 0x00	; 0
	{
		OK_LED_TOGGLE();
 2ea:	28 b3       	in	r18, 0x18	; 24
 2ec:	20 58       	subi	r18, 0x80	; 128
 2ee:	28 bb       	out	0x18, r18	; 24
 2f0:	2f e9       	ldi	r18, 0x9F	; 159
 2f2:	36 e8       	ldi	r19, 0x86	; 134
 2f4:	41 e0       	ldi	r20, 0x01	; 1
 2f6:	21 50       	subi	r18, 0x01	; 1
 2f8:	30 40       	sbci	r19, 0x00	; 0
 2fa:	40 40       	sbci	r20, 0x00	; 0
 2fc:	e1 f7       	brne	.-8      	; 0x2f6 <ok_led_blinking+0x12>
 2fe:	00 c0       	rjmp	.+0      	; 0x300 <ok_led_blinking+0x1c>
 300:	00 00       	nop
		_delay_ms(250);
		OK_LED_TOGGLE();
 302:	28 b3       	in	r18, 0x18	; 24
 304:	20 58       	subi	r18, 0x80	; 128
 306:	28 bb       	out	0x18, r18	; 24
 308:	2f e9       	ldi	r18, 0x9F	; 159
 30a:	36 e8       	ldi	r19, 0x86	; 134
 30c:	41 e0       	ldi	r20, 0x01	; 1
 30e:	21 50       	subi	r18, 0x01	; 1
 310:	30 40       	sbci	r19, 0x00	; 0
 312:	40 40       	sbci	r20, 0x00	; 0
 314:	e1 f7       	brne	.-8      	; 0x30e <ok_led_blinking+0x2a>
 316:	00 c0       	rjmp	.+0      	; 0x318 <ok_led_blinking+0x34>
 318:	00 00       	nop
	}
}

void ok_led_blinking(uint8_t n)
{
	for (uint8_t i=0; i<n; i++)
 31a:	9f 5f       	subi	r25, 0xFF	; 255
 31c:	98 13       	cpse	r25, r24
 31e:	e5 cf       	rjmp	.-54     	; 0x2ea <ok_led_blinking+0x6>
 320:	08 95       	ret

00000322 <error_led_blinking>:
	}
}

void error_led_blinking(uint8_t n)
{
	for (uint8_t i=0; i<n; i++)
 322:	88 23       	and	r24, r24
 324:	e9 f0       	breq	.+58     	; 0x360 <error_led_blinking+0x3e>
 326:	90 e0       	ldi	r25, 0x00	; 0
	{
		ERROR_LED_TOGGLE();
 328:	20 e4       	ldi	r18, 0x40	; 64
 32a:	38 b3       	in	r19, 0x18	; 24
 32c:	32 27       	eor	r19, r18
 32e:	38 bb       	out	0x18, r19	; 24
 330:	3f e9       	ldi	r19, 0x9F	; 159
 332:	46 e8       	ldi	r20, 0x86	; 134
 334:	51 e0       	ldi	r21, 0x01	; 1
 336:	31 50       	subi	r19, 0x01	; 1
 338:	40 40       	sbci	r20, 0x00	; 0
 33a:	50 40       	sbci	r21, 0x00	; 0
 33c:	e1 f7       	brne	.-8      	; 0x336 <error_led_blinking+0x14>
 33e:	00 c0       	rjmp	.+0      	; 0x340 <error_led_blinking+0x1e>
 340:	00 00       	nop
		_delay_ms(250);
		ERROR_LED_TOGGLE();
 342:	38 b3       	in	r19, 0x18	; 24
 344:	32 27       	eor	r19, r18
 346:	38 bb       	out	0x18, r19	; 24
 348:	3f e9       	ldi	r19, 0x9F	; 159
 34a:	46 e8       	ldi	r20, 0x86	; 134
 34c:	51 e0       	ldi	r21, 0x01	; 1
 34e:	31 50       	subi	r19, 0x01	; 1
 350:	40 40       	sbci	r20, 0x00	; 0
 352:	50 40       	sbci	r21, 0x00	; 0
 354:	e1 f7       	brne	.-8      	; 0x34e <error_led_blinking+0x2c>
 356:	00 c0       	rjmp	.+0      	; 0x358 <error_led_blinking+0x36>
 358:	00 00       	nop
	}
}

void error_led_blinking(uint8_t n)
{
	for (uint8_t i=0; i<n; i++)
 35a:	9f 5f       	subi	r25, 0xFF	; 255
 35c:	98 13       	cpse	r25, r24
 35e:	e5 cf       	rjmp	.-54     	; 0x32a <error_led_blinking+0x8>
 360:	08 95       	ret

00000362 <main>:

#define UART_BAUD_RATE 9600

int main(void)
{
	port_config();
 362:	79 df       	rcall	.-270    	; 0x256 <port_config>
	uart_init( UART_BAUD_SELECT(UART_BAUD_RATE,F_CPU) );
 364:	8c e0       	ldi	r24, 0x0C	; 12
 366:	90 e0       	ldi	r25, 0x00	; 0
 368:	a3 d0       	rcall	.+326    	; 0x4b0 <uart_init>
	uart_reset_tx_buffer();
 36a:	e7 d0       	rcall	.+462    	; 0x53a <uart_reset_tx_buffer>
	uart_reset_rx_buffer();
 36c:	d5 d0       	rcall	.+426    	; 0x518 <uart_reset_rx_buffer>
	sei();
 36e:	78 94       	sei
	leds_blinking(3);
 370:	83 e0       	ldi	r24, 0x03	; 3
 372:	92 df       	rcall	.-220    	; 0x298 <leds_blinking>
	gsm_init();
 374:	ed de       	rcall	.-550    	; 0x150 <gsm_init>

	while(1)
	{
		button_int0_handler();
 376:	8f d0       	rcall	.+286    	; 0x496 <button_int0_handler>
		gsm_event_handler();
 378:	0c df       	rcall	.-488    	; 0x192 <gsm_event_handler>
 37a:	fd cf       	rjmp	.-6      	; 0x376 <main+0x14>

0000037c <__vector_11>:
#define LF_TERMINATOR		'\n'
#define CR_LF_TERMINATOR	"\r\n"


ISR(USART_RXC_vect)
{
 37c:	1f 92       	push	r1
 37e:	0f 92       	push	r0
 380:	0f b6       	in	r0, 0x3f	; 63
 382:	0f 92       	push	r0
 384:	11 24       	eor	r1, r1
 386:	2f 93       	push	r18
 388:	3f 93       	push	r19
 38a:	4f 93       	push	r20
 38c:	5f 93       	push	r21
 38e:	8f 93       	push	r24
 390:	9f 93       	push	r25
 392:	ef 93       	push	r30
 394:	ff 93       	push	r31
	static volatile uint8_t data_in_buffer = 0;
    uint8_t usr;
    uint8_t last_rx_error;

    /* read UART status register and UART data register */
    usr  = UCSRA;
 396:	5b b1       	in	r21, 0x0b	; 11
    data = UDR;
 398:	4c b1       	in	r20, 0x0c	; 12

    /* receive buffer had a error */
    last_rx_error = (usr & ((1<<FE)|(1<<DOR)));
 39a:	58 71       	andi	r21, 0x18	; 24

    /* calculate buffer index */
    tmp_head = ( UART_RxHead + 1) & UART_RX_BUFFER_MASK;
 39c:	80 91 e1 00 	lds	r24, 0x00E1
 3a0:	90 e0       	ldi	r25, 0x00	; 0
 3a2:	01 96       	adiw	r24, 0x01	; 1
 3a4:	8f 77       	andi	r24, 0x7F	; 127
 3a6:	99 27       	eor	r25, r25

    if ( tmp_head == UART_RxTail )
 3a8:	20 91 e0 00 	lds	r18, 0x00E0
 3ac:	30 e0       	ldi	r19, 0x00	; 0
 3ae:	28 17       	cp	r18, r24
 3b0:	39 07       	cpc	r19, r25
 3b2:	01 f1       	breq	.+64     	; 0x3f4 <__vector_11+0x78>
    }
	else
	{
		/* "\r\nRING\r\n\r\n+CLIP: "+362043269592,145,,,,0\r\n" */
		/* store received data in buffer */
		if ((data != CR_TERMINATOR) && (data != LF_TERMINATOR))
 3b4:	4d 30       	cpi	r20, 0x0D	; 13
 3b6:	39 f1       	breq	.+78     	; 0x406 <__vector_11+0x8a>
 3b8:	4a 30       	cpi	r20, 0x0A	; 10
 3ba:	01 f1       	breq	.+64     	; 0x3fc <__vector_11+0x80>
		{
			/* store received data in buffer */
			UART_RxBuf[UART_RxHead] = data;
 3bc:	e0 91 e1 00 	lds	r30, 0x00E1
 3c0:	f0 e0       	ldi	r31, 0x00	; 0
 3c2:	ec 59       	subi	r30, 0x9C	; 156
 3c4:	fe 4f       	sbci	r31, 0xFE	; 254
 3c6:	40 83       	st	Z, r20
			/* store new index */
			UART_RxHead = tmp_head;
 3c8:	80 93 e1 00 	sts	0x00E1, r24
			/* set that data is in the buffer */
			data_in_buffer = 1;
 3cc:	81 e0       	ldi	r24, 0x01	; 1
 3ce:	80 93 dd 00 	sts	0x00DD, r24
 3d2:	11 c0       	rjmp	.+34     	; 0x3f6 <__vector_11+0x7a>
		}
		/* at termination char close the buffer data */
		else if (data_in_buffer && ((data == CR_TERMINATOR) || (data == LF_TERMINATOR)))
		{
			/* close the data with '\0' */
			UART_RxBuf[UART_RxHead] = NULL_TERMINATOR;
 3d4:	e0 91 e1 00 	lds	r30, 0x00E1
 3d8:	f0 e0       	ldi	r31, 0x00	; 0
 3da:	ec 59       	subi	r30, 0x9C	; 156
 3dc:	fe 4f       	sbci	r31, 0xFE	; 254
 3de:	10 82       	st	Z, r1
			/* store new index */
			UART_RxHead = tmp_head;
 3e0:	80 93 e1 00 	sts	0x00E1, r24
			/* set the flag to proceed the buffer */
			UART_RxReady++;
 3e4:	80 91 df 00 	lds	r24, 0x00DF
 3e8:	8f 5f       	subi	r24, 0xFF	; 255
 3ea:	80 93 df 00 	sts	0x00DF, r24
			/* reset the termination counter */
			data_in_buffer = 0;
 3ee:	10 92 dd 00 	sts	0x00DD, r1
 3f2:	01 c0       	rjmp	.+2      	; 0x3f6 <__vector_11+0x7a>
    tmp_head = ( UART_RxHead + 1) & UART_RX_BUFFER_MASK;

    if ( tmp_head == UART_RxTail )
	{
        /* error: receive buffer overflow */
        last_rx_error = (UART_BUFFER_OVERFLOW>>8);
 3f4:	52 e0       	ldi	r21, 0x02	; 2
			/* reset the termination counter */
			data_in_buffer = 0;
		}
    }
	/* store the actual error in the global var*/
    UART_LastRxError = last_rx_error;
 3f6:	50 93 de 00 	sts	0x00DE, r21
 3fa:	0a c0       	rjmp	.+20     	; 0x410 <__vector_11+0x94>
			UART_RxHead = tmp_head;
			/* set that data is in the buffer */
			data_in_buffer = 1;
		}
		/* at termination char close the buffer data */
		else if (data_in_buffer && ((data == CR_TERMINATOR) || (data == LF_TERMINATOR)))
 3fc:	20 91 dd 00 	lds	r18, 0x00DD
 400:	21 11       	cpse	r18, r1
 402:	e8 cf       	rjmp	.-48     	; 0x3d4 <__vector_11+0x58>
 404:	f8 cf       	rjmp	.-16     	; 0x3f6 <__vector_11+0x7a>
 406:	20 91 dd 00 	lds	r18, 0x00DD
 40a:	21 11       	cpse	r18, r1
 40c:	e3 cf       	rjmp	.-58     	; 0x3d4 <__vector_11+0x58>
 40e:	f3 cf       	rjmp	.-26     	; 0x3f6 <__vector_11+0x7a>
			data_in_buffer = 0;
		}
    }
	/* store the actual error in the global var*/
    UART_LastRxError = last_rx_error;
}
 410:	ff 91       	pop	r31
 412:	ef 91       	pop	r30
 414:	9f 91       	pop	r25
 416:	8f 91       	pop	r24
 418:	5f 91       	pop	r21
 41a:	4f 91       	pop	r20
 41c:	3f 91       	pop	r19
 41e:	2f 91       	pop	r18
 420:	0f 90       	pop	r0
 422:	0f be       	out	0x3f, r0	; 63
 424:	0f 90       	pop	r0
 426:	1f 90       	pop	r1
 428:	18 95       	reti

0000042a <__vector_1>:

ISR(INT0_vect)
{
 42a:	1f 92       	push	r1
 42c:	0f 92       	push	r0
 42e:	0f b6       	in	r0, 0x3f	; 63
 430:	0f 92       	push	r0
 432:	11 24       	eor	r1, r1
 434:	8f 93       	push	r24
	/* button is pushed */
	BUTTON_INT0 = 1;
 436:	81 e0       	ldi	r24, 0x01	; 1
 438:	80 93 e4 01 	sts	0x01E4, r24
}
 43c:	8f 91       	pop	r24
 43e:	0f 90       	pop	r0
 440:	0f be       	out	0x3f, r0	; 63
 442:	0f 90       	pop	r0
 444:	1f 90       	pop	r1
 446:	18 95       	reti

00000448 <__vector_12>:

ISR(USART_UDRE_vect)
{
 448:	1f 92       	push	r1
 44a:	0f 92       	push	r0
 44c:	0f b6       	in	r0, 0x3f	; 63
 44e:	0f 92       	push	r0
 450:	11 24       	eor	r1, r1
 452:	8f 93       	push	r24
 454:	9f 93       	push	r25
 456:	ef 93       	push	r30
 458:	ff 93       	push	r31
    uint16_t tmpTail;

    if ( UART_TxHead != UART_TxTail)
 45a:	90 91 e3 00 	lds	r25, 0x00E3
 45e:	80 91 e2 00 	lds	r24, 0x00E2
 462:	98 17       	cp	r25, r24
 464:	71 f0       	breq	.+28     	; 0x482 <__stack+0x23>
	{
        /* calculate and store new buffer index */
        tmpTail = (UART_TxTail + 1) & UART_TX_BUFFER_MASK;
 466:	80 91 e2 00 	lds	r24, 0x00E2
 46a:	90 e0       	ldi	r25, 0x00	; 0
 46c:	01 96       	adiw	r24, 0x01	; 1
 46e:	8f 77       	andi	r24, 0x7F	; 127
 470:	99 27       	eor	r25, r25
        UART_TxTail = tmpTail;
 472:	80 93 e2 00 	sts	0x00E2, r24
        /* get one byte from buffer and write it to UART */
        UDR = UART_TxBuf[tmpTail];  /* start transmission */
 476:	fc 01       	movw	r30, r24
 478:	ec 51       	subi	r30, 0x1C	; 28
 47a:	ff 4f       	sbci	r31, 0xFF	; 255
 47c:	80 81       	ld	r24, Z
 47e:	8c b9       	out	0x0c, r24	; 12
 480:	01 c0       	rjmp	.+2      	; 0x484 <__stack+0x25>
    }
	else
	{
        /* tx buffer empty, disable UDRE interrupt */
        UCSRB &= ~(1<<UDRIE);
 482:	55 98       	cbi	0x0a, 5	; 10
    }
}
 484:	ff 91       	pop	r31
 486:	ef 91       	pop	r30
 488:	9f 91       	pop	r25
 48a:	8f 91       	pop	r24
 48c:	0f 90       	pop	r0
 48e:	0f be       	out	0x3f, r0	; 63
 490:	0f 90       	pop	r0
 492:	1f 90       	pop	r1
 494:	18 95       	reti

00000496 <button_int0_handler>:

void button_int0_handler(void)
{
 496:	cf 93       	push	r28
	/* manual switch button is pushed */
	if (BUTTON_INT0)
 498:	80 91 e4 01 	lds	r24, 0x01E4
 49c:	88 23       	and	r24, r24
 49e:	31 f0       	breq	.+12     	; 0x4ac <button_int0_handler+0x16>
	{
		ATOMIC_BLOCK(ATOMIC_RESTORESTATE)
 4a0:	cf b7       	in	r28, 0x3f	; 63
    return 1;
}

static __inline__ uint8_t __iCliRetVal(void)
{
    cli();
 4a2:	f8 94       	cli
		{
			/* reset the flag */
			BUTTON_INT0 = 0;
 4a4:	10 92 e4 01 	sts	0x01E4, r1
			/* switch ON or OFF the outputs */
			toggle_outputs();
 4a8:	ee de       	rcall	.-548    	; 0x286 <toggle_outputs>
    (void)__s;
}

static __inline__ void __iRestore(const  uint8_t *__s)
{
    SREG = *__s;
 4aa:	cf bf       	out	0x3f, r28	; 63
		}
	}
}
 4ac:	cf 91       	pop	r28
 4ae:	08 95       	ret

000004b0 <uart_init>:

void uart_init(uint16_t baudrate)
{
	/* Set baud rate */
	if ( baudrate & 0x8000 )
 4b0:	99 23       	and	r25, r25
 4b2:	1c f4       	brge	.+6      	; 0x4ba <uart_init+0xa>
	{
		UCSRA = (1<<U2X);  //Enable 2x speed
 4b4:	22 e0       	ldi	r18, 0x02	; 2
 4b6:	2b b9       	out	0x0b, r18	; 11
		baudrate &= ~0x8000;
 4b8:	9f 77       	andi	r25, 0x7F	; 127
	}
	/* Load the higher 8 bit of the valueUBRR into the UBRRH register */
	UBRRH = (uint8_t)(baudrate>>8);
 4ba:	90 bd       	out	0x20, r25	; 32
	/* Load the lower 8 bit of the valueUBRR into the UBRRL register */
	UBRRL = (uint8_t) baudrate;
 4bc:	89 b9       	out	0x09, r24	; 9
	/* Enable USART receiver and transmitter and receive complete interrupt */
	UCSRB |= ((1 << RXEN)|(1 << TXEN)|(1 << RXCIE));
 4be:	8a b1       	in	r24, 0x0a	; 10
 4c0:	88 69       	ori	r24, 0x98	; 152
 4c2:	8a b9       	out	0x0a, r24	; 10
	/* Set frame format: asynchronous, 8data, no parity, 1stop bit */
	UCSRC |= ((1 << URSEL)|(1 << UCSZ0)|(1 << UCSZ1));
 4c4:	80 b5       	in	r24, 0x20	; 32
 4c6:	86 68       	ori	r24, 0x86	; 134
 4c8:	80 bd       	out	0x20, r24	; 32
 4ca:	08 95       	ret

000004cc <uart_put_char>:

void uart_put_char(uint8_t c)
{
	uint16_t tmpHead;

	tmpHead  = (UART_TxHead + 1) & UART_TX_BUFFER_MASK;
 4cc:	40 91 e3 00 	lds	r20, 0x00E3
 4d0:	50 e0       	ldi	r21, 0x00	; 0
 4d2:	4f 5f       	subi	r20, 0xFF	; 255
 4d4:	5f 4f       	sbci	r21, 0xFF	; 255
 4d6:	4f 77       	andi	r20, 0x7F	; 127
 4d8:	55 27       	eor	r21, r21

	while ( tmpHead == UART_TxTail )
 4da:	20 91 e2 00 	lds	r18, 0x00E2
 4de:	30 e0       	ldi	r19, 0x00	; 0
 4e0:	24 17       	cp	r18, r20
 4e2:	35 07       	cpc	r19, r21
 4e4:	d1 f3       	breq	.-12     	; 0x4da <uart_put_char+0xe>
	{
		;/* wait for free space in buffer */
	}

	ATOMIC_BLOCK(ATOMIC_RESTORESTATE)
 4e6:	9f b7       	in	r25, 0x3f	; 63
    return 1;
}

static __inline__ uint8_t __iCliRetVal(void)
{
    cli();
 4e8:	f8 94       	cli
	{
		UART_TxBuf[tmpHead] = c;
 4ea:	fa 01       	movw	r30, r20
 4ec:	ec 51       	subi	r30, 0x1C	; 28
 4ee:	ff 4f       	sbci	r31, 0xFF	; 255
 4f0:	80 83       	st	Z, r24
		UART_TxHead = tmpHead;
 4f2:	40 93 e3 00 	sts	0x00E3, r20
    (void)__s;
}

static __inline__ void __iRestore(const  uint8_t *__s)
{
    SREG = *__s;
 4f6:	9f bf       	out	0x3f, r25	; 63
	}

	/* enable UDRE interrupt */
	UCSRB |= (1<<UDRIE);
 4f8:	55 9a       	sbi	0x0a, 5	; 10
 4fa:	08 95       	ret

000004fc <uart_put_string>:
}

void uart_put_string(const char *s)
{
 4fc:	cf 93       	push	r28
 4fe:	df 93       	push	r29
 500:	ec 01       	movw	r28, r24
	while (*s)
 502:	88 81       	ld	r24, Y
 504:	88 23       	and	r24, r24
 506:	29 f0       	breq	.+10     	; 0x512 <uart_put_string+0x16>
 508:	21 96       	adiw	r28, 0x01	; 1
	{
		uart_put_char(*s++);
 50a:	e0 df       	rcall	.-64     	; 0x4cc <uart_put_char>
	UCSRB |= (1<<UDRIE);
}

void uart_put_string(const char *s)
{
	while (*s)
 50c:	89 91       	ld	r24, Y+
 50e:	81 11       	cpse	r24, r1
 510:	fc cf       	rjmp	.-8      	; 0x50a <uart_put_string+0xe>
	{
		uart_put_char(*s++);
	}
}
 512:	df 91       	pop	r29
 514:	cf 91       	pop	r28
 516:	08 95       	ret

00000518 <uart_reset_rx_buffer>:
	}
}

void uart_reset_rx_buffer(void)
{
	ATOMIC_BLOCK(ATOMIC_RESTORESTATE)
 518:	8f b7       	in	r24, 0x3f	; 63
    return 1;
}

static __inline__ uint8_t __iCliRetVal(void)
{
    cli();
 51a:	f8 94       	cli
	{
		UART_RxHead = 0;
 51c:	10 92 e1 00 	sts	0x00E1, r1
		UART_RxTail = 0;
 520:	10 92 e0 00 	sts	0x00E0, r1
		UART_RxReady = 0;
 524:	10 92 df 00 	sts	0x00DF, r1
		memset(&UART_RxBuf, NULL_TERMINATOR, sizeof(UART_RxBuf));
 528:	90 e8       	ldi	r25, 0x80	; 128
 52a:	e4 e6       	ldi	r30, 0x64	; 100
 52c:	f1 e0       	ldi	r31, 0x01	; 1
 52e:	df 01       	movw	r26, r30
 530:	1d 92       	st	X+, r1
 532:	9a 95       	dec	r25
 534:	e9 f7       	brne	.-6      	; 0x530 <uart_reset_rx_buffer+0x18>
    (void)__s;
}

static __inline__ void __iRestore(const  uint8_t *__s)
{
    SREG = *__s;
 536:	8f bf       	out	0x3f, r24	; 63
    __asm__ volatile ("" ::: "memory");
 538:	08 95       	ret

0000053a <uart_reset_tx_buffer>:
	}
}

void uart_reset_tx_buffer(void)
{
	ATOMIC_BLOCK(ATOMIC_RESTORESTATE)
 53a:	8f b7       	in	r24, 0x3f	; 63
    return 1;
}

static __inline__ uint8_t __iCliRetVal(void)
{
    cli();
 53c:	f8 94       	cli
	{
		UART_TxHead = 0;
 53e:	10 92 e3 00 	sts	0x00E3, r1
		UART_TxTail = 0;
 542:	10 92 e2 00 	sts	0x00E2, r1
		memset(&UART_TxBuf, NULL_TERMINATOR, sizeof(UART_TxBuf));
 546:	90 e8       	ldi	r25, 0x80	; 128
 548:	e4 ee       	ldi	r30, 0xE4	; 228
 54a:	f0 e0       	ldi	r31, 0x00	; 0
 54c:	df 01       	movw	r26, r30
 54e:	1d 92       	st	X+, r1
 550:	9a 95       	dec	r25
 552:	e9 f7       	brne	.-6      	; 0x54e <uart_reset_tx_buffer+0x14>
    (void)__s;
}

static __inline__ void __iRestore(const  uint8_t *__s)
{
    SREG = *__s;
 554:	8f bf       	out	0x3f, r24	; 63
    __asm__ volatile ("" ::: "memory");
 556:	08 95       	ret

00000558 <uart_move_rx_tail>:
	}
}

void uart_move_rx_tail(void)
{
 558:	cf 93       	push	r28
	ATOMIC_BLOCK(ATOMIC_RESTORESTATE)
 55a:	cf b7       	in	r28, 0x3f	; 63
    return 1;
}

static __inline__ uint8_t __iCliRetVal(void)
{
    cli();
 55c:	f8 94       	cli
	{
		const char *ptr = strchr((const char *)UART_RxBuf+UART_RxTail, NULL_TERMINATOR);
 55e:	80 91 e0 00 	lds	r24, 0x00E0
 562:	90 e0       	ldi	r25, 0x00	; 0
 564:	60 e0       	ldi	r22, 0x00	; 0
 566:	70 e0       	ldi	r23, 0x00	; 0
 568:	8c 59       	subi	r24, 0x9C	; 156
 56a:	9e 4f       	sbci	r25, 0xFE	; 254
 56c:	34 d0       	rcall	.+104    	; 0x5d6 <strchr>
		if (ptr)
 56e:	00 97       	sbiw	r24, 0x00	; 0
 570:	59 f0       	breq	.+22     	; 0x588 <uart_move_rx_tail+0x30>
		{
        	UART_RxTail = ptr-(const char *)UART_RxBuf+1;
 572:	24 e6       	ldi	r18, 0x64	; 100
 574:	31 e0       	ldi	r19, 0x01	; 1
 576:	82 1b       	sub	r24, r18
 578:	8f 5f       	subi	r24, 0xFF	; 255
 57a:	80 93 e0 00 	sts	0x00E0, r24
			UART_RxReady--;
 57e:	80 91 df 00 	lds	r24, 0x00DF
 582:	81 50       	subi	r24, 0x01	; 1
 584:	80 93 df 00 	sts	0x00DF, r24
    (void)__s;
}

static __inline__ void __iRestore(const  uint8_t *__s)
{
    SREG = *__s;
 588:	cf bf       	out	0x3f, r28	; 63
    	}
	}
}
 58a:	cf 91       	pop	r28
 58c:	08 95       	ret

0000058e <uart_is_data_in_rx_buffer>:

uint8_t uart_is_data_in_rx_buffer(const char *data)
{
 58e:	cf 93       	push	r28
 590:	bc 01       	movw	r22, r24
	uint8_t res;
	ATOMIC_BLOCK(ATOMIC_RESTORESTATE)
 592:	cf b7       	in	r28, 0x3f	; 63
    return 1;
}

static __inline__ uint8_t __iCliRetVal(void)
{
    cli();
 594:	f8 94       	cli
	{
		if (UART_RxReady && strstr((const char *)UART_RxBuf+UART_RxTail, data))
 596:	80 91 df 00 	lds	r24, 0x00DF
 59a:	88 23       	and	r24, r24
 59c:	59 f0       	breq	.+22     	; 0x5b4 <uart_is_data_in_rx_buffer+0x26>
 59e:	80 91 e0 00 	lds	r24, 0x00E0
 5a2:	90 e0       	ldi	r25, 0x00	; 0
 5a4:	8c 59       	subi	r24, 0x9C	; 156
 5a6:	9e 4f       	sbci	r25, 0xFE	; 254
 5a8:	21 d0       	rcall	.+66     	; 0x5ec <strstr>
 5aa:	21 e0       	ldi	r18, 0x01	; 1
 5ac:	89 2b       	or	r24, r25
 5ae:	19 f4       	brne	.+6      	; 0x5b6 <uart_is_data_in_rx_buffer+0x28>
 5b0:	20 e0       	ldi	r18, 0x00	; 0
 5b2:	01 c0       	rjmp	.+2      	; 0x5b6 <uart_is_data_in_rx_buffer+0x28>
		{
			res = 1;
		}
		else
		{
			res = 0;
 5b4:	20 e0       	ldi	r18, 0x00	; 0
    (void)__s;
}

static __inline__ void __iRestore(const  uint8_t *__s)
{
    SREG = *__s;
 5b6:	cf bf       	out	0x3f, r28	; 63
		}
	}
	return res;
}
 5b8:	82 2f       	mov	r24, r18
 5ba:	cf 91       	pop	r28
 5bc:	08 95       	ret

000005be <__umulhisi3>:
 5be:	a2 9f       	mul	r26, r18
 5c0:	b0 01       	movw	r22, r0
 5c2:	b3 9f       	mul	r27, r19
 5c4:	c0 01       	movw	r24, r0
 5c6:	a3 9f       	mul	r26, r19
 5c8:	01 d0       	rcall	.+2      	; 0x5cc <__umulhisi3+0xe>
 5ca:	b2 9f       	mul	r27, r18
 5cc:	70 0d       	add	r23, r0
 5ce:	81 1d       	adc	r24, r1
 5d0:	11 24       	eor	r1, r1
 5d2:	91 1d       	adc	r25, r1
 5d4:	08 95       	ret

000005d6 <strchr>:
 5d6:	fc 01       	movw	r30, r24
 5d8:	81 91       	ld	r24, Z+
 5da:	86 17       	cp	r24, r22
 5dc:	21 f0       	breq	.+8      	; 0x5e6 <strchr+0x10>
 5de:	88 23       	and	r24, r24
 5e0:	d9 f7       	brne	.-10     	; 0x5d8 <strchr+0x2>
 5e2:	99 27       	eor	r25, r25
 5e4:	08 95       	ret
 5e6:	31 97       	sbiw	r30, 0x01	; 1
 5e8:	cf 01       	movw	r24, r30
 5ea:	08 95       	ret

000005ec <strstr>:
 5ec:	fb 01       	movw	r30, r22
 5ee:	51 91       	ld	r21, Z+
 5f0:	55 23       	and	r21, r21
 5f2:	a9 f0       	breq	.+42     	; 0x61e <strstr+0x32>
 5f4:	bf 01       	movw	r22, r30
 5f6:	dc 01       	movw	r26, r24
 5f8:	4d 91       	ld	r20, X+
 5fa:	45 17       	cp	r20, r21
 5fc:	41 11       	cpse	r20, r1
 5fe:	e1 f7       	brne	.-8      	; 0x5f8 <strstr+0xc>
 600:	59 f4       	brne	.+22     	; 0x618 <strstr+0x2c>
 602:	cd 01       	movw	r24, r26
 604:	01 90       	ld	r0, Z+
 606:	00 20       	and	r0, r0
 608:	49 f0       	breq	.+18     	; 0x61c <strstr+0x30>
 60a:	4d 91       	ld	r20, X+
 60c:	40 15       	cp	r20, r0
 60e:	41 11       	cpse	r20, r1
 610:	c9 f3       	breq	.-14     	; 0x604 <strstr+0x18>
 612:	fb 01       	movw	r30, r22
 614:	41 11       	cpse	r20, r1
 616:	ef cf       	rjmp	.-34     	; 0x5f6 <strstr+0xa>
 618:	81 e0       	ldi	r24, 0x01	; 1
 61a:	90 e0       	ldi	r25, 0x00	; 0
 61c:	01 97       	sbiw	r24, 0x01	; 1
 61e:	08 95       	ret

00000620 <_exit>:
 620:	f8 94       	cli

00000622 <__stop_program>:
 622:	ff cf       	rjmp	.-2      	; 0x622 <__stop_program>
